target datalayout = "e-m:e-p270:32:32-p271:32:32-p272:64:64-i64:64-i128:128-f80:128-n8:16:32:64-S128"
target triple = "x86_64-pc-linux-gnu"

%struct._exr_encode_pipeline = type { i64, ptr, i16, i16, i32, ptr, %struct.exr_chunk_info_t, ptr, ptr, i64, i64, ptr, i64, ptr, i64, i64, ptr, i64, i64, ptr, i64, ptr, i64, ptr, ptr, ptr, ptr, ptr, ptr, [5 x %struct.exr_coding_channel_info_t] }
%struct.exr_chunk_info_t = type { i32, i32, i32, i32, i32, i8, i8, i8, i8, i64, i64, i64, i64, i64 }
%struct.exr_coding_channel_info_t = type { ptr, i32, i32, i32, i32, i8, i8, i16, i16, i16, i32, i32, %union.anon }
%union.anon = type { ptr }
%struct._priv_exr_context_t = type { i8, i8, i8, i8, i8, i8, i8, i8, %struct.exr_attr_string_t, %struct.exr_attr_string_t, ptr, ptr, ptr, ptr, ptr, ptr, ptr, ptr, i32, i32, i32, i32, i32, float, ptr, ptr, ptr, i64, ptr, ptr, i64, i32, i32, i32, i32, %struct._priv_exr_part_t, ptr, ptr, %struct.exr_attribute_list, %union.pthread_mutex_t, i8, i8, [2 x i8], i32 }
%struct.exr_attr_string_t = type { i32, i32, ptr }
%struct._priv_exr_part_t = type { i32, i32, %struct.exr_attribute_list, ptr, ptr, ptr, ptr, ptr, ptr, ptr, ptr, ptr, ptr, ptr, ptr, ptr, ptr, %struct.exr_attr_box2i_t, %struct.exr_attr_box2i_t, i32, i32, i32, float, i32, i32, ptr, ptr, ptr, ptr, i64, i16, i16, i32, i64, i64 }
%struct.exr_attr_box2i_t = type { %struct.exr_attr_v2i_t, %struct.exr_attr_v2i_t }
%struct.exr_attr_v2i_t = type { i32, i32 }
%struct.exr_attribute_list = type { i32, i32, ptr, ptr }
%union.pthread_mutex_t = type { %struct.__pthread_mutex_s }
%struct.__pthread_mutex_s = type { i32, i32, i32, i32, i32, i16, i16, %struct.__pthread_internal_list }
%struct.__pthread_internal_list = type { ptr, ptr }

@.str = private unnamed_addr constant [29 x i8] c"Part index (%d) out of range\00", align 1
@.str.1 = private unnamed_addr constant [71 x i8] c"Cross-wired request for default routines from different context / part\00", align 1

; Function Attrs: inlinehint nounwind uwtable
define internal void @internal_exr_unlock(ptr noundef %0) #3 {
  %2 = alloca ptr, align 8
  %3 = alloca ptr, align 8
  store ptr %0, ptr %2, align 8, !tbaa !3
  call void @llvm.lifetime.start.p0(i64 8, ptr %3) #7
  %4 = load ptr, ptr %2, align 8, !tbaa !3
  %5 = ptrtoint ptr %4 to i64
  %6 = inttoptr i64 %5 to ptr
  store ptr %6, ptr %3, align 8, !tbaa !3
  %7 = load ptr, ptr %3, align 8, !tbaa !3
  %8 = getelementptr inbounds nuw %struct._priv_exr_context_t, ptr %7, i32 0, i32 39
  %9 = call i32 @pthread_mutex_unlock(ptr noundef %8) #7
  call void @llvm.lifetime.end.p0(i64 8, ptr %3) #7
  ret void
}

; Function Attrs: inlinehint nounwind uwtable
define internal void @internal_exr_lock(ptr noundef %0) #3 {
  %2 = alloca ptr, align 8
  %3 = alloca ptr, align 8
  store ptr %0, ptr %2, align 8, !tbaa !3
  call void @llvm.lifetime.start.p0(i64 8, ptr %3) #7
  %4 = load ptr, ptr %2, align 8, !tbaa !3
  %5 = ptrtoint ptr %4 to i64
  %6 = inttoptr i64 %5 to ptr
  store ptr %6, ptr %3, align 8, !tbaa !3
  %7 = load ptr, ptr %3, align 8, !tbaa !3
  %8 = getelementptr inbounds nuw %struct._priv_exr_context_t, ptr %7, i32 0, i32 39
  %9 = call i32 @pthread_mutex_lock(ptr noundef %8) #7
  call void @llvm.lifetime.end.p0(i64 8, ptr %3) #7
  ret void
}

; Function Attrs: nounwind uwtable
define i32 @exr_encoding_update(ptr noundef %0, i32 noundef %1, ptr noundef %2, ptr noundef %3) #0 {
  %5 = alloca i32, align 4
  %6 = alloca ptr, align 8
  %7 = alloca i32, align 4
  %8 = alloca ptr, align 8
  %9 = alloca ptr, align 8
  %10 = alloca i32, align 4
  %11 = alloca ptr, align 8
  %12 = alloca i32, align 4
  store ptr %0, ptr %6, align 8, !tbaa !3
  store i32 %1, ptr %7, align 4, !tbaa !8
  store ptr %2, ptr %8, align 8, !tbaa !10
  store ptr %3, ptr %9, align 8, !tbaa !11
  call void @llvm.lifetime.start.p0(i64 4, ptr %10) #7
  call void @llvm.lifetime.start.p0(i64 8, ptr %11) #7
  %13 = load ptr, ptr %6, align 8, !tbaa !3
  %14 = icmp ne ptr %13, null
  br i1 %14, label %16, label %15

15:                                               ; preds = %4
  store i32 2, ptr %5, align 4
  store i32 1, ptr %12, align 4
  br label %148

16:                                               ; preds = %4
  %17 = load ptr, ptr %6, align 8, !tbaa !3
  %18 = getelementptr inbounds nuw %struct._priv_exr_context_t, ptr %17, i32 0, i32 0
  %19 = load i8, ptr %18, align 8, !tbaa !13
  %20 = zext i8 %19 to i32
  %21 = icmp eq i32 %20, 1
  br i1 %21, label %22, label %24

22:                                               ; preds = %16
  %23 = load ptr, ptr %6, align 8, !tbaa !3
  call void @internal_exr_lock(ptr noundef %23)
  br label %24

24:                                               ; preds = %22, %16
  %25 = load i32, ptr %7, align 4, !tbaa !8
  %26 = icmp slt i32 %25, 0
  br i1 %26, label %33, label %27

27:                                               ; preds = %24
  %28 = load i32, ptr %7, align 4, !tbaa !8
  %29 = load ptr, ptr %6, align 8, !tbaa !3
  %30 = getelementptr inbounds nuw %struct._priv_exr_context_t, ptr %29, i32 0, i32 34
  %31 = load i32, ptr %30, align 4, !tbaa !28
  %32 = icmp sge i32 %28, %31
  br i1 %32, label %33, label %48

33:                                               ; preds = %27, %24
  %34 = load ptr, ptr %6, align 8, !tbaa !3
  %35 = getelementptr inbounds nuw %struct._priv_exr_context_t, ptr %34, i32 0, i32 0
  %36 = load i8, ptr %35, align 8, !tbaa !13
  %37 = zext i8 %36 to i32
  %38 = icmp eq i32 %37, 1
  br i1 %38, label %39, label %41

39:                                               ; preds = %33
  %40 = load ptr, ptr %6, align 8, !tbaa !3
  call void @internal_exr_unlock(ptr noundef %40)
  br label %41

41:                                               ; preds = %39, %33
  %42 = load ptr, ptr %6, align 8, !tbaa !3
  %43 = getelementptr inbounds nuw %struct._priv_exr_context_t, ptr %42, i32 0, i32 14
  %44 = load ptr, ptr %43, align 8, !tbaa !29
  %45 = load ptr, ptr %6, align 8, !tbaa !3
  %46 = load i32, ptr %7, align 4, !tbaa !8
  %47 = call i32 (ptr, i32, ptr, ...) %44(ptr noundef %45, i32 noundef 4, ptr noundef @.str, i32 noundef %46)
  store i32 %47, ptr %5, align 4
  store i32 1, ptr %12, align 4
  br label %148

48:                                               ; preds = %27
  %49 = load ptr, ptr %6, align 8, !tbaa !3
  %50 = getelementptr inbounds nuw %struct._priv_exr_context_t, ptr %49, i32 0, i32 37
  %51 = load ptr, ptr %50, align 8, !tbaa !30
  %52 = load i32, ptr %7, align 4, !tbaa !8
  %53 = sext i32 %52 to i64
  %54 = getelementptr inbounds ptr, ptr %51, i64 %53
  %55 = load ptr, ptr %54, align 8, !tbaa !31
  store ptr %55, ptr %11, align 8, !tbaa !31
  %56 = load ptr, ptr %8, align 8, !tbaa !10
  %57 = icmp ne ptr %56, null
  br i1 %57, label %58, label %61

58:                                               ; preds = %48
  %59 = load ptr, ptr %9, align 8, !tbaa !11
  %60 = icmp ne ptr %59, null
  br i1 %60, label %76, label %61

61:                                               ; preds = %58, %48
  %62 = load ptr, ptr %6, align 8, !tbaa !3
  %63 = getelementptr inbounds nuw %struct._priv_exr_context_t, ptr %62, i32 0, i32 0
  %64 = load i8, ptr %63, align 8, !tbaa !13
  %65 = zext i8 %64 to i32
  %66 = icmp eq i32 %65, 1
  br i1 %66, label %67, label %69

67:                                               ; preds = %61
  %68 = load ptr, ptr %6, align 8, !tbaa !3
  call void @internal_exr_unlock(ptr noundef %68)
  br label %70

69:                                               ; preds = %61
  br label %70

70:                                               ; preds = %69, %67
  %71 = load ptr, ptr %6, align 8, !tbaa !3
  %72 = getelementptr inbounds nuw %struct._priv_exr_context_t, ptr %71, i32 0, i32 12
  %73 = load ptr, ptr %72, align 8, !tbaa !32
  %74 = load ptr, ptr %6, align 8, !tbaa !3
  %75 = call i32 %73(ptr noundef %74, i32 noundef 3)
  store i32 %75, ptr %5, align 4
  store i32 1, ptr %12, align 4
  br label %148

76:                                               ; preds = %58
  %77 = load ptr, ptr %9, align 8, !tbaa !11
  %78 = getelementptr inbounds nuw %struct._exr_encode_pipeline, ptr %77, i32 0, i32 5
  %79 = load ptr, ptr %78, align 8, !tbaa !41
  %80 = load ptr, ptr %6, align 8, !tbaa !3
  %81 = icmp ne ptr %79, %80
  br i1 %81, label %88, label %82

82:                                               ; preds = %76
  %83 = load ptr, ptr %9, align 8, !tbaa !11
  %84 = getelementptr inbounds nuw %struct._exr_encode_pipeline, ptr %83, i32 0, i32 4
  %85 = load i32, ptr %84, align 4, !tbaa !38
  %86 = load i32, ptr %7, align 4, !tbaa !8
  %87 = icmp ne i32 %85, %86
  br i1 %87, label %88, label %103

88:                                               ; preds = %82, %76
  %89 = load ptr, ptr %6, align 8, !tbaa !3
  %90 = getelementptr inbounds nuw %struct._priv_exr_context_t, ptr %89, i32 0, i32 0
  %91 = load i8, ptr %90, align 8, !tbaa !13
  %92 = zext i8 %91 to i32
  %93 = icmp eq i32 %92, 1
  br i1 %93, label %94, label %96

94:                                               ; preds = %88
  %95 = load ptr, ptr %6, align 8, !tbaa !3
  call void @internal_exr_unlock(ptr noundef %95)
  br label %97

96:                                               ; preds = %88
  br label %97

97:                                               ; preds = %96, %94
  %98 = load ptr, ptr %6, align 8, !tbaa !3
  %99 = getelementptr inbounds nuw %struct._priv_exr_context_t, ptr %98, i32 0, i32 14
  %100 = load ptr, ptr %99, align 8, !tbaa !29
  %101 = load ptr, ptr %6, align 8, !tbaa !3
  %102 = call i32 (ptr, i32, ptr, ...) %100(ptr noundef %101, i32 noundef 3, ptr noundef @.str.1)
  store i32 %102, ptr %5, align 4
  store i32 1, ptr %12, align 4
  br label %148

103:                                              ; preds = %82
  %104 = load ptr, ptr %9, align 8, !tbaa !11
  %105 = getelementptr inbounds nuw %struct._exr_encode_pipeline, ptr %104, i32 0, i32 8
  %106 = load ptr, ptr %105, align 8, !tbaa !59
  %107 = load ptr, ptr %9, align 8, !tbaa !11
  %108 = getelementptr inbounds nuw %struct._exr_encode_pipeline, ptr %107, i32 0, i32 16
  %109 = load ptr, ptr %108, align 8, !tbaa !51
  %110 = icmp eq ptr %106, %109
  br i1 %110, label %111, label %114

111:                                              ; preds = %103
  %112 = load ptr, ptr %9, align 8, !tbaa !11
  %113 = getelementptr inbounds nuw %struct._exr_encode_pipeline, ptr %112, i32 0, i32 16
  store ptr null, ptr %113, align 8, !tbaa !51
  br label %114

114:                                              ; preds = %111, %103
  %115 = load ptr, ptr %9, align 8, !tbaa !11
  %116 = getelementptr inbounds nuw %struct._exr_encode_pipeline, ptr %115, i32 0, i32 9
  store i64 0, ptr %116, align 8, !tbaa !58
  %117 = load ptr, ptr %9, align 8, !tbaa !11
  %118 = getelementptr inbounds nuw %struct._exr_encode_pipeline, ptr %117, i32 0, i32 14
  store i64 0, ptr %118, align 8, !tbaa !57
  %119 = load ptr, ptr %9, align 8, !tbaa !11
  %120 = getelementptr inbounds nuw %struct._exr_encode_pipeline, ptr %119, i32 0, i32 17
  store i64 0, ptr %120, align 8, !tbaa !52
  %121 = load ptr, ptr %9, align 8, !tbaa !11
  %122 = getelementptr inbounds nuw %struct._exr_encode_pipeline, ptr %121, i32 0, i32 1
  %123 = load ptr, ptr %122, align 8, !tbaa !60
  %124 = load ptr, ptr %9, align 8, !tbaa !11
  %125 = getelementptr inbounds nuw %struct._exr_encode_pipeline, ptr %124, i32 0, i32 2
  %126 = load i16, ptr %125, align 8, !tbaa !61
  %127 = load ptr, ptr %8, align 8, !tbaa !10
  %128 = load ptr, ptr %6, align 8, !tbaa !3
  %129 = load ptr, ptr %11, align 8, !tbaa !31
  %130 = call i32 @internal_coding_update_channel_info(ptr noundef %123, i16 noundef signext %126, ptr noundef %127, ptr noundef %128, ptr noundef %129)
  store i32 %130, ptr %10, align 4, !tbaa !8
  %131 = load i32, ptr %10, align 4, !tbaa !8
  %132 = icmp eq i32 %131, 0
  br i1 %132, label %133, label %137

133:                                              ; preds = %114
  %134 = load ptr, ptr %9, align 8, !tbaa !11
  %135 = getelementptr inbounds nuw %struct._exr_encode_pipeline, ptr %134, i32 0, i32 6
  %136 = load ptr, ptr %8, align 8, !tbaa !10
  call void @llvm.memcpy.p0.p0.i64(ptr align 8 %135, ptr align 8 %136, i64 64, i1 false), !tbaa.struct !42
  br label %137

137:                                              ; preds = %133, %114
  %138 = load ptr, ptr %6, align 8, !tbaa !3
  %139 = getelementptr inbounds nuw %struct._priv_exr_context_t, ptr %138, i32 0, i32 0
  %140 = load i8, ptr %139, align 8, !tbaa !13
  %141 = zext i8 %140 to i32
  %142 = icmp eq i32 %141, 1
  br i1 %142, label %143, label %145

143:                                              ; preds = %137
  %144 = load ptr, ptr %6, align 8, !tbaa !3
  call void @internal_exr_unlock(ptr noundef %144)
  br label %146

145:                                              ; preds = %137
  br label %146

146:                                              ; preds = %145, %143
  %147 = load i32, ptr %10, align 4, !tbaa !8
  store i32 %147, ptr %5, align 4
  store i32 1, ptr %12, align 4
  br label %148

148:                                              ; preds = %146, %97, %70, %41, %15
  call void @llvm.lifetime.end.p0(i64 8, ptr %11) #7
  call void @llvm.lifetime.end.p0(i64 4, ptr %10) #7
  %149 = load i32, ptr %5, align 4
  ret i32 %149
}