; Function Attrs: nounwind uwtable
define i32 @exr_encoding_update(ptr noundef %0, i32 noundef %1, ptr noundef %2, ptr noundef %3) local_unnamed_addr #0 {
  %.not = icmp eq ptr %0, null
  br i1 %.not, label %85, label %5

5:                                                ; preds = %4
  %6 = load i8, ptr %0, align 8, !tbaa !3
  %7 = icmp eq i8 %6, 1
  br i1 %7, label %8, label %11

8:                                                ; preds = %5
  %9 = getelementptr inbounds nuw i8, ptr %0, i64 504
  %10 = tail call i32 @pthread_mutex_lock(ptr noundef nonnull %9) #5
  br label %11

11:                                               ; preds = %8, %5
  %12 = icmp slt i32 %1, 0
  br i1 %12, label %16, label %13

13:                                               ; preds = %11
  %14 = getelementptr inbounds nuw i8, ptr %0, i64 196
  %15 = load i32, ptr %14, align 4, !tbaa !22
  %.not49 = icmp slt i32 %1, %15
  br i1 %.not49, label %26, label %16

16:                                               ; preds = %13, %11
  %17 = load i8, ptr %0, align 8, !tbaa !3
  %18 = icmp eq i8 %17, 1
  br i1 %18, label %19, label %22

19:                                               ; preds = %16
  %20 = getelementptr inbounds nuw i8, ptr %0, i64 504
  %21 = tail call i32 @pthread_mutex_unlock(ptr noundef nonnull %20) #5
  br label %22

22:                                               ; preds = %19, %16
  %23 = getelementptr inbounds nuw i8, ptr %0, i64 72
  %24 = load ptr, ptr %23, align 8, !tbaa !23
  %25 = tail call i32 (ptr, i32, ptr, ...) %24(ptr noundef nonnull %0, i32 noundef 4, ptr noundef nonnull @.str, i32 noundef %1) #5
  br label %85

26:                                               ; preds = %13
  %27 = getelementptr inbounds nuw i8, ptr %0, i64 472
  %28 = load ptr, ptr %27, align 8, !tbaa !24
  %29 = zext nneg i32 %1 to i64
  %30 = getelementptr inbounds nuw ptr, ptr %28, i64 %29
  %31 = load ptr, ptr %30, align 8, !tbaa !25
  %32 = icmp ne ptr %2, null
  %33 = icmp ne ptr %3, null
  %or.cond = and i1 %32, %33
  br i1 %or.cond, label %44, label %34

34:                                               ; preds = %26
  %35 = load i8, ptr %0, align 8, !tbaa !3
  %36 = icmp eq i8 %35, 1
  br i1 %36, label %37, label %40

37:                                               ; preds = %34
  %38 = getelementptr inbounds nuw i8, ptr %0, i64 504
  %39 = tail call i32 @pthread_mutex_unlock(ptr noundef nonnull %38) #5
  br label %40

40:                                               ; preds = %34, %37
  %41 = getelementptr inbounds nuw i8, ptr %0, i64 56
  %42 = load ptr, ptr %41, align 8, !tbaa !26
  %43 = tail call i32 %42(ptr noundef nonnull %0, i32 noundef 3) #5
  br label %85

44:                                               ; preds = %26
  %45 = getelementptr inbounds nuw i8, ptr %3, i64 24
  %46 = load ptr, ptr %45, align 8, !tbaa !31
  %.not50 = icmp eq ptr %46, %0
  br i1 %.not50, label %47, label %50

47:                                               ; preds = %44
  %48 = getelementptr inbounds nuw i8, ptr %3, i64 20
  %49 = load i32, ptr %48, align 4, !tbaa !27
  %.not51 = icmp eq i32 %49, %1
  br i1 %.not51, label %60, label %50

50:                                               ; preds = %47, %44
  %51 = load i8, ptr %0, align 8, !tbaa !3
  %52 = icmp eq i8 %51, 1
  br i1 %52, label %53, label %56

53:                                               ; preds = %50
  %54 = getelementptr inbounds nuw i8, ptr %0, i64 504
  %55 = tail call i32 @pthread_mutex_unlock(ptr noundef nonnull %54) #5
  br label %56

56:                                               ; preds = %50, %53
  %57 = getelementptr inbounds nuw i8, ptr %0, i64 72
  %58 = load ptr, ptr %57, align 8, !tbaa !23
  %59 = tail call i32 (ptr, i32, ptr, ...) %58(ptr noundef nonnull %0, i32 noundef 3, ptr noundef nonnull @.str.1) #5
  br label %85

60:                                               ; preds = %47
  %61 = getelementptr inbounds nuw i8, ptr %3, i64 104
  %62 = load ptr, ptr %61, align 8, !tbaa !52
  %63 = getelementptr inbounds nuw i8, ptr %3, i64 168
  %64 = load ptr, ptr %63, align 8, !tbaa !44
  %65 = icmp eq ptr %62, %64
  br i1 %65, label %66, label %67

66:                                               ; preds = %60
  store ptr null, ptr %63, align 8, !tbaa !44
  br label %67

67:                                               ; preds = %66, %60
  %68 = getelementptr inbounds nuw i8, ptr %3, i64 112
  store i64 0, ptr %68, align 8, !tbaa !51
  %69 = getelementptr inbounds nuw i8, ptr %3, i64 152
  store i64 0, ptr %69, align 8, !tbaa !50
  %70 = getelementptr inbounds nuw i8, ptr %3, i64 176
  store i64 0, ptr %70, align 8, !tbaa !45
  %71 = getelementptr inbounds nuw i8, ptr %3, i64 8
  %72 = load ptr, ptr %71, align 8, !tbaa !53
  %73 = getelementptr inbounds nuw i8, ptr %3, i64 16
  %74 = load i16, ptr %73, align 8, !tbaa !54
  %75 = tail call i32 @internal_coding_update_channel_info(ptr noundef %72, i16 noundef signext %74, ptr noundef nonnull %2, ptr noundef nonnull %0, ptr noundef %31) #5
  %76 = icmp eq i32 %75, 0
  br i1 %76, label %77, label %79

77:                                               ; preds = %67
  %78 = getelementptr inbounds nuw i8, ptr %3, i64 32
  tail call void @llvm.memcpy.p0.p0.i64(ptr noundef nonnull align 8 dereferenceable(64) %78, ptr noundef nonnull align 8 dereferenceable(64) %2, i64 64, i1 false), !tbaa.struct !32
  br label %79

79:                                               ; preds = %77, %67
  %80 = load i8, ptr %0, align 8, !tbaa !3
  %81 = icmp eq i8 %80, 1
  br i1 %81, label %82, label %85

82:                                               ; preds = %79
  %83 = getelementptr inbounds nuw i8, ptr %0, i64 504
  %84 = tail call i32 @pthread_mutex_unlock(ptr noundef nonnull %83) #5
  br label %85

85:                                               ; preds = %82, %79, %4, %56, %40, %22
  %.0 = phi i32 [ %25, %22 ], [ %59, %56 ], [ %43, %40 ], [ 2, %4 ], [ %75, %79 ], [ %75, %82 ]
  ret i32 %.0
}